; Function Attrs: nounwind uwtable
define ptr @l_Lean_Compiler_LCNF_Testing_getPassUnderTest(ptr noundef %0, ptr readnone captures(none) %1, ptr readnone captures(none) %2, ptr readnone captures(none) %3, ptr readnone captures(none) %4, ptr noundef %5) local_unnamed_addr #0 {
  %.val = load i32, ptr %0, align 4, !tbaa !9
  %7 = icmp eq i32 %.val, 1
  br i1 %7, label %8, label %20

8:                                                ; preds = %6
  %9 = getelementptr inbounds nuw i8, ptr %0, i64 16
  %10 = load ptr, ptr %9, align 8, !tbaa !7
  %11 = ptrtoint ptr %10 to i64
  %12 = and i64 %11, 1
  %.not20 = icmp eq i64 %12, 0
  br i1 %.not20, label %13, label %lean_dec.exit15

13:                                               ; preds = %8
  %14 = load i32, ptr %10, align 4, !tbaa !9
  %15 = icmp sgt i32 %14, 1
  br i1 %15, label %16, label %18, !prof !12

16:                                               ; preds = %13
  %17 = add nsw i32 %14, -1
  store i32 %17, ptr %10, align 4, !tbaa !9
  br label %lean_dec.exit15

18:                                               ; preds = %13
  %.not.i = icmp eq i32 %14, 0
  br i1 %.not.i, label %lean_dec.exit15, label %19

19:                                               ; preds = %18
  tail call void @lean_dec_ref_cold(ptr noundef nonnull %10) #5
  br label %lean_dec.exit15

lean_dec.exit15:                                  ; preds = %19, %18, %16, %8
  store ptr %5, ptr %9, align 8, !tbaa !7
  br label %46

20:                                               ; preds = %6
  %21 = getelementptr inbounds nuw i8, ptr %0, i64 8
  %22 = load ptr, ptr %21, align 8, !tbaa !7
  %23 = ptrtoint ptr %22 to i64
  %24 = and i64 %23, 1
  %.not = icmp eq i64 %24, 0
  br i1 %.not, label %25, label %lean_inc.exit

25:                                               ; preds = %20
  %.val.i = load i32, ptr %22, align 4, !tbaa !9
  %26 = icmp sgt i32 %.val.i, 0
  br i1 %26, label %27, label %29, !prof !12

27:                                               ; preds = %25
  %28 = add nuw i32 %.val.i, 1
  store i32 %28, ptr %22, align 4, !tbaa !9
  br label %lean_inc.exit

29:                                               ; preds = %25
  %.not.i18 = icmp eq i32 %.val.i, 0
  br i1 %.not.i18, label %lean_inc.exit, label %30

30:                                               ; preds = %29
  tail call void @lean_inc_ref_cold(ptr noundef nonnull %22) #5
  br label %lean_inc.exit

lean_inc.exit:                                    ; preds = %30, %29, %27, %20
  %31 = ptrtoint ptr %0 to i64
  %32 = and i64 %31, 1
  %.not19 = icmp eq i64 %32, 0
  br i1 %.not19, label %33, label %lean_dec.exit

33:                                               ; preds = %lean_inc.exit
  %34 = load i32, ptr %0, align 4, !tbaa !9
  %35 = icmp sgt i32 %34, 1
  br i1 %35, label %36, label %38, !prof !12

36:                                               ; preds = %33
  %37 = add nsw i32 %34, -1
  store i32 %37, ptr %0, align 4, !tbaa !9
  br label %lean_dec.exit

38:                                               ; preds = %33
  %.not.i16 = icmp eq i32 %34, 0
  br i1 %.not.i16, label %lean_dec.exit, label %39

39:                                               ; preds = %38
  tail call void @lean_dec_ref_cold(ptr noundef nonnull %0) #5
  br label %lean_dec.exit

lean_dec.exit:                                    ; preds = %39, %38, %36, %lean_inc.exit
  tail call void @lean_inc_heartbeat() #5
  %40 = tail call noalias ptr @mi_malloc_small(i64 noundef 24) #5
  %41 = icmp eq ptr %40, null
  br i1 %41, label %42, label %lean_alloc_ctor.exit

42:                                               ; preds = %lean_dec.exit
  tail call void @lean_internal_panic_out_of_memory() #6
  unreachable

lean_alloc_ctor.exit:                             ; preds = %lean_dec.exit
  %43 = getelementptr inbounds nuw i8, ptr %40, i64 4
  store i32 1, ptr %40, align 4, !tbaa !9
  store i32 131096, ptr %43, align 4
  %44 = getelementptr inbounds nuw i8, ptr %40, i64 8
  store ptr %22, ptr %44, align 8, !tbaa !7
  %45 = getelementptr inbounds nuw i8, ptr %40, i64 16
  store ptr %5, ptr %45, align 8, !tbaa !7
  br label %46

46:                                               ; preds = %lean_alloc_ctor.exit, %lean_dec.exit15
  %.0 = phi ptr [ %0, %lean_dec.exit15 ], [ %40, %lean_alloc_ctor.exit ]
  ret ptr %.0
}